; Function Attrs: mustprogress nounwind uwtable
define hidden void @_ZNK14addD_mem_0Node4emitEP17C2_MacroAssemblerP13PhaseRegAlloc(ptr noundef nonnull align 8 dereferenceable(88) %0, ptr noundef %1, ptr noundef %2) unnamed_addr #3 align 2 {
  %4 = alloca %class.Address, align 8
  %5 = alloca %class.Address, align 8
  %6 = getelementptr inbounds i8, ptr %0, i64 72
  %7 = load ptr, ptr %6, align 8
  %8 = load ptr, ptr %7, align 8
  %9 = getelementptr inbounds i8, ptr %8, i64 8
  %10 = load ptr, ptr %9, align 8
  %11 = tail call noundef i32 %10(ptr noundef nonnull align 8 dereferenceable(8) %7) #23
  %12 = add i32 %11, 2
  %13 = getelementptr inbounds i8, ptr %0, i64 80
  %14 = load ptr, ptr %13, align 8
  %15 = load ptr, ptr %14, align 8
  %16 = getelementptr inbounds i8, ptr %15, i64 40
  %17 = load ptr, ptr %16, align 8
  %18 = tail call noundef i32 %17(ptr noundef nonnull align 8 dereferenceable(8) %14, ptr noundef %2, ptr noundef nonnull %0, i32 noundef %12) #23
  %or.cond.i.i = icmp ult i32 %18, 32
  %spec.select.i.i = select i1 %or.cond.i.i, i32 %18, i32 -1
  %19 = load ptr, ptr %6, align 8
  %20 = load ptr, ptr %19, align 8
  %21 = getelementptr inbounds i8, ptr %20, i64 104
  %22 = load ptr, ptr %21, align 8
  %23 = tail call noundef i32 %22(ptr noundef nonnull align 8 dereferenceable(8) %19, ptr noundef %2, ptr noundef nonnull %0, i32 noundef 2) #23
  %24 = load ptr, ptr %6, align 8
  %25 = load ptr, ptr %24, align 8
  %26 = getelementptr inbounds i8, ptr %25, i64 112
  %27 = load ptr, ptr %26, align 8
  %28 = tail call noundef i32 %27(ptr noundef nonnull align 8 dereferenceable(8) %24, ptr noundef %2, ptr noundef nonnull %0, i32 noundef 2) #23
  %29 = load ptr, ptr %6, align 8
  %30 = load ptr, ptr %29, align 8
  %31 = getelementptr inbounds i8, ptr %30, i64 120
  %32 = load ptr, ptr %31, align 8
  %33 = tail call noundef i32 %32(ptr noundef nonnull align 8 dereferenceable(8) %29) #23
  %34 = load ptr, ptr %6, align 8
  %35 = load ptr, ptr %34, align 8
  %36 = getelementptr inbounds i8, ptr %35, i64 128
  %37 = load ptr, ptr %36, align 8
  %38 = tail call noundef i32 %37(ptr noundef nonnull align 8 dereferenceable(8) %34, ptr noundef %2, ptr noundef nonnull %0, i32 noundef 2) #23
  %39 = load ptr, ptr %6, align 8
  %40 = load ptr, ptr %39, align 8
  %41 = getelementptr inbounds i8, ptr %40, i64 136
  %42 = load ptr, ptr %41, align 8
  %43 = tail call noundef i32 %42(ptr noundef nonnull align 8 dereferenceable(8) %39) #23
  call void @_ZN7Address8make_rawEiiiiN9relocInfo9relocTypeE(ptr dead_on_unwind nonnull writable sret(%class.Address) align 8 %5, i32 noundef %23, i32 noundef %28, i32 noundef %33, i32 noundef %38, i32 noundef %43) #23
  call void @llvm.lifetime.start.p0(i64 64, ptr nonnull %4)
  call void @llvm.memcpy.p0.p0.i64(ptr noundef nonnull align 8 dereferenceable(21) %4, ptr noundef nonnull align 8 dereferenceable(21) %5, i64 21, i1 false)
  %44 = getelementptr inbounds i8, ptr %4, i64 24
  %45 = getelementptr inbounds i8, ptr %5, i64 24
  %46 = load ptr, ptr %45, align 8
  %47 = getelementptr inbounds i8, ptr %46, i64 16
  %48 = load ptr, ptr %47, align 8
  call void %48(ptr noundef nonnull align 8 dereferenceable(20) %45, ptr noundef nonnull align 8 dereferenceable(40) %44) #23
  call void @_ZN9Assembler5addsdE11XMMRegister7Address(ptr noundef nonnull align 8 dereferenceable(40) %1, i32 %spec.select.i.i, ptr noundef nonnull %4) #23
  call void @llvm.lifetime.end.p0(i64 64, ptr nonnull %4)
  ret void
}